; ModuleID = '36/1616.c'
source_filename = "36/1616.c"
target datalayout = "e-m:e-p270:32:32-p271:32:32-p272:64:64-i64:64-f80:128-n8:16:32:64-S128"
target triple = "x86_64-pc-linux-gnu"

@main.a = internal global [100 x i8] zeroinitializer, align 16
@main.b = internal global [100 x i8] zeroinitializer, align 16
@.str = private unnamed_addr constant [5 x i8] c"%s%s\00", align 1
@.str.1 = private unnamed_addr constant [4 x i8] c"YES\00", align 1
@.str.2 = private unnamed_addr constant [3 x i8] c"NO\00", align 1

; Function Attrs: noinline nounwind uwtable
define dso_local i32 @main() #0 {
  %1 = alloca i32, align 4
  %2 = alloca i32, align 4
  %3 = alloca i32, align 4
  %4 = alloca i32, align 4
  store i32 0, i32* %1, align 4
  store i32 1, i32* %4, align 4
  %5 = call i32 (i8*, ...) @__isoc99_scanf(i8* getelementptr inbounds ([5 x i8], [5 x i8]* @.str, i64 0, i64 0), i8* getelementptr inbounds ([100 x i8], [100 x i8]* @main.a, i64 0, i64 0), i8* getelementptr inbounds ([100 x i8], [100 x i8]* @main.b, i64 0, i64 0))
  store i32 0, i32* %2, align 4
  br label %6

6:                                                ; preds = %50, %0
  %7 = load i32, i32* %2, align 4
  %8 = sext i32 %7 to i64
  %9 = getelementptr inbounds [100 x i8], [100 x i8]* @main.a, i64 0, i64 %8
  %10 = load i8, i8* %9, align 1
  %11 = sext i8 %10 to i32
  %12 = icmp ne i32 %11, 0
  br i1 %12, label %13, label %53

13:                                               ; preds = %6
  store i32 0, i32* %3, align 4
  br label %14

14:                                               ; preds = %38, %13
  %15 = load i32, i32* %3, align 4
  %16 = sext i32 %15 to i64
  %17 = getelementptr inbounds [100 x i8], [100 x i8]* @main.b, i64 0, i64 %16
  %18 = load i8, i8* %17, align 1
  %19 = sext i8 %18 to i32
  %20 = icmp ne i32 %19, 0
  br i1 %20, label %21, label %41

21:                                               ; preds = %14
  %22 = load i32, i32* %3, align 4
  %23 = sext i32 %22 to i64
  %24 = getelementptr inbounds [100 x i8], [100 x i8]* @main.b, i64 0, i64 %23
  %25 = load i8, i8* %24, align 1
  %26 = sext i8 %25 to i32
  %27 = load i32, i32* %2, align 4
  %28 = sext i32 %27 to i64
  %29 = getelementptr inbounds [100 x i8], [100 x i8]* @main.a, i64 0, i64 %28
  %30 = load i8, i8* %29, align 1
  %31 = sext i8 %30 to i32
  %32 = icmp eq i32 %26, %31
  br i1 %32, label %33, label %37

33:                                               ; preds = %21
  %34 = load i32, i32* %3, align 4
  %35 = sext i32 %34 to i64
  %36 = getelementptr inbounds [100 x i8], [100 x i8]* @main.b, i64 0, i64 %35
  store i8 1, i8* %36, align 1
  br label %41

37:                                               ; preds = %21
  br label %38

38:                                               ; preds = %37
  %39 = load i32, i32* %3, align 4
  %40 = add nsw i32 %39, 1
  store i32 %40, i32* %3, align 4
  br label %14

41:                                               ; preds = %33, %14
  %42 = load i32, i32* %3, align 4
  %43 = sext i32 %42 to i64
  %44 = getelementptr inbounds [100 x i8], [100 x i8]* @main.b, i64 0, i64 %43
  %45 = load i8, i8* %44, align 1
  %46 = sext i8 %45 to i32
  %47 = icmp eq i32 %46, 0
  br i1 %47, label %48, label %49

48:                                               ; preds = %41
  store i32 0, i32* %4, align 4
  br label %53

49:                                               ; preds = %41
  br label %50

50:                                               ; preds = %49
  %51 = load i32, i32* %2, align 4
  %52 = add nsw i32 %51, 1
  store i32 %52, i32* %2, align 4
  br label %6

53:                                               ; preds = %48, %6
  store i32 0, i32* %3, align 4
  br label %54

54:                                               ; preds = %70, %53
  %55 = load i32, i32* %3, align 4
  %56 = sext i32 %55 to i64
  %57 = getelementptr inbounds [100 x i8], [100 x i8]* @main.b, i64 0, i64 %56
  %58 = load i8, i8* %57, align 1
  %59 = sext i8 %58 to i32
  %60 = icmp ne i32 %59, 0
  br i1 %60, label %61, label %73

61:                                               ; preds = %54
  %62 = load i32, i32* %3, align 4
  %63 = sext i32 %62 to i64
  %64 = getelementptr inbounds [100 x i8], [100 x i8]* @main.b, i64 0, i64 %63
  %65 = load i8, i8* %64, align 1
  %66 = sext i8 %65 to i32
  %67 = icmp ne i32 %66, 1
  br i1 %67, label %68, label %69

68:                                               ; preds = %61
  store i32 0, i32* %4, align 4
  br label %69

69:                                               ; preds = %68, %61
  br label %70

70:                                               ; preds = %69
  %71 = load i32, i32* %3, align 4
  %72 = add nsw i32 %71, 1
  store i32 %72, i32* %3, align 4
  br label %54

73:                                               ; preds = %54
  %74 = load i32, i32* %4, align 4
  %75 = icmp ne i32 %74, 0
  br i1 %75, label %76, label %78

76:                                               ; preds = %73
  %77 = call i32 (i8*, ...) @printf(i8* getelementptr inbounds ([4 x i8], [4 x i8]* @.str.1, i64 0, i64 0))
  br label %80

78:                                               ; preds = %73
  %79 = call i32 (i8*, ...) @printf(i8* getelementptr inbounds ([3 x i8], [3 x i8]* @.str.2, i64 0, i64 0))
  br label %80

80:                                               ; preds = %78, %76
  %81 = load i32, i32* %1, align 4
  ret i32 %81
}

declare dso_local i32 @__isoc99_scanf(i8*, ...) #1

declare dso_local i32 @printf(i8*, ...) #1


!llvm.module.flags = !{!0}
!llvm.ident = !{!1}

!0 = !{i32 1, !"wchar_size", i32 4}
!1 = !{!"clang version 10.0.0-4ubuntu1 "}
